target datalayout = "e-m:e-p270:32:32-p271:32:32-p272:64:64-i64:64-i128:128-f80:128-n8:16:32:64-S128"
target triple = "x86_64-pc-linux-gnu"

%"class.OpenSubdiv::v3_6_0::Bfr::Parameterization" = type { i8, i8, i16 }
%"class.OpenSubdiv::v3_6_0::Bfr::Tessellation" = type { %"class.OpenSubdiv::v3_6_0::Bfr::Parameterization", i8, i16, i32, i32, i32, i32, i32, i32, [2 x i32], ptr, [4 x i32] }

; Function Attrs: mustprogress nounwind uwtable
define void @_ZN10OpenSubdiv6v3_6_03Bfr12TessellationD2Ev(ptr noundef nonnull align 8 dereferenceable(64) %0) unnamed_addr #1 align 2 {
  %2 = alloca ptr, align 8
  store ptr %0, ptr %2, align 8
  %3 = load ptr, ptr %2, align 8
  %4 = getelementptr inbounds nuw %"class.OpenSubdiv::v3_6_0::Bfr::Tessellation", ptr %3, i32 0, i32 10
  %5 = load ptr, ptr %4, align 8
  %6 = getelementptr inbounds nuw %"class.OpenSubdiv::v3_6_0::Bfr::Tessellation", ptr %3, i32 0, i32 11
  %7 = getelementptr inbounds [4 x i32], ptr %6, i64 0, i64 0
  %8 = icmp ne ptr %5, %7
  br i1 %8, label %9, label %15

9:                                                ; preds = %1
  %10 = getelementptr inbounds nuw %"class.OpenSubdiv::v3_6_0::Bfr::Tessellation", ptr %3, i32 0, i32 10
  %11 = load ptr, ptr %10, align 8
  %12 = icmp eq ptr %11, null
  br i1 %12, label %14, label %13

13:                                               ; preds = %9
  call void @_ZdaPv(ptr noundef %11) #10
  br label %14

14:                                               ; preds = %13, %9
  br label %15

15:                                               ; preds = %14, %1
  ret void
}