; Function Attrs: mustprogress nounwind uwtable
define void @_ZN10OpenSubdiv6v3_6_03Bfr12TessellationD2Ev(ptr noundef nonnull readonly align 8 dereferenceable(64) %0) unnamed_addr #11 align 2 {
  %2 = getelementptr inbounds nuw i8, ptr %0, i64 40
  %3 = load ptr, ptr %2, align 8
  %4 = getelementptr inbounds nuw i8, ptr %0, i64 48
  %.not = icmp eq ptr %3, %4
  %5 = icmp eq ptr %3, null
  %or.cond = or i1 %.not, %5
  br i1 %or.cond, label %7, label %6

6:                                                ; preds = %1
  tail call void @_ZdaPv(ptr noundef nonnull %3) #22
  br label %7

7:                                                ; preds = %6, %1
  ret void
}